target datalayout = "e-m:e-p270:32:32-p271:32:32-p272:64:64-i64:64-i128:128-f80:128-n8:16:32:64-S128"
target triple = "x86_64-pc-linux-gnu"

%"struct.std::atomic.10" = type { %"struct.std::__atomic_base.11" }
%"struct.std::__atomic_base.11" = type { i64 }
%"struct.std::atomic" = type { %"struct.std::__atomic_base" }
%"struct.std::__atomic_base" = type { i32 }
%"class.folly::DefaultKeepAliveExecutor" = type { %"class.folly::Executor", %"class.std::shared_ptr.3", %"class.folly::Baton", %"class.folly::Executor::KeepAlive" }
%"class.folly::Executor" = type { ptr }
%"class.std::shared_ptr.3" = type { %"class.std::__shared_ptr.4" }
%"class.std::__shared_ptr.4" = type { ptr, %"class.std::__shared_count" }
%"class.std::__shared_count" = type { ptr }
%"class.folly::Baton" = type { %"struct.std::atomic" }
%"class.folly::Executor::KeepAlive" = type { i64 }
%"class.std::chrono::duration" = type { i64 }
%"class.std::chrono::duration.9" = type { i64 }
%"class.std::shared_ptr.6" = type { %"class.std::__shared_ptr.7" }
%"class.std::__shared_ptr.7" = type { ptr, %"class.std::__shared_count" }
%"class.folly::ThreadPoolExecutor::ThreadList" = type { %"class.std::vector", %"class.std::chrono::duration.9" }
%"class.std::vector" = type { %"struct.std::_Vector_base" }
%"struct.std::_Vector_base" = type { %"struct.std::_Vector_base<std::shared_ptr<folly::ThreadPoolExecutor::Thread>, std::allocator<std::shared_ptr<folly::ThreadPoolExecutor::Thread>>>::_Vector_impl" }
%"struct.std::_Vector_base<std::shared_ptr<folly::ThreadPoolExecutor::Thread>, std::allocator<std::shared_ptr<folly::ThreadPoolExecutor::Thread>>>::_Vector_impl" = type { %"struct.std::_Vector_base<std::shared_ptr<folly::ThreadPoolExecutor::Thread>, std::allocator<std::shared_ptr<folly::ThreadPoolExecutor::Thread>>>::_Vector_impl_data" }
%"struct.std::_Vector_base<std::shared_ptr<folly::ThreadPoolExecutor::Thread>, std::allocator<std::shared_ptr<folly::ThreadPoolExecutor::Thread>>>::_Vector_impl_data" = type { ptr, ptr, ptr }
%"class.folly::SharedMutexImpl" = type { %"struct.std::atomic" }
%"class.folly::ThreadPoolExecutor::StoppedThreadQueue" = type { %"class.folly::BlockingQueue", [56 x i8], %"struct.folly::LifoSemImpl", %"class.std::mutex", %"class.std::queue", [8 x i8] }
%"class.folly::BlockingQueue" = type { ptr }
%"struct.folly::LifoSemImpl" = type { %"struct.folly::detail::LifoSemBase" }
%"struct.folly::detail::LifoSemBase" = type { %"class.folly::aligned" }
%"class.folly::aligned" = type { %"class.folly::AtomicStruct", [56 x i8] }
%"class.folly::AtomicStruct" = type { %"struct.std::atomic.10" }
%"class.std::mutex" = type { %"class.std::__mutex_base" }
%"class.std::__mutex_base" = type { %union.pthread_mutex_t }
%union.pthread_mutex_t = type { %struct.__pthread_mutex_s }
%struct.__pthread_mutex_s = type { i32, i32, i32, i32, i32, i16, i16, %struct.__pthread_internal_list }
%struct.__pthread_internal_list = type { ptr, ptr }
%"class.std::queue" = type { %"class.std::deque" }
%"class.std::deque" = type { %"class.std::_Deque_base" }
%"class.std::_Deque_base" = type { %"struct.std::_Deque_base<std::shared_ptr<folly::ThreadPoolExecutor::Thread>, std::allocator<std::shared_ptr<folly::ThreadPoolExecutor::Thread>>>::_Deque_impl" }
%"struct.std::_Deque_base<std::shared_ptr<folly::ThreadPoolExecutor::Thread>, std::allocator<std::shared_ptr<folly::ThreadPoolExecutor::Thread>>>::_Deque_impl" = type { %"struct.std::_Deque_base<std::shared_ptr<folly::ThreadPoolExecutor::Thread>, std::allocator<std::shared_ptr<folly::ThreadPoolExecutor::Thread>>>::_Deque_impl_data" }
%"struct.std::_Deque_base<std::shared_ptr<folly::ThreadPoolExecutor::Thread>, std::allocator<std::shared_ptr<folly::ThreadPoolExecutor::Thread>>>::_Deque_impl_data" = type { ptr, i64, %"struct.std::_Deque_iterator", %"struct.std::_Deque_iterator" }
%"struct.std::_Deque_iterator" = type { ptr, ptr, ptr, ptr }
%"struct.std::atomic.12" = type { %"struct.std::__atomic_base.13" }
%"struct.std::__atomic_base.13" = type { i8 }
%"class.std::vector.14" = type { %"struct.std::_Vector_base.15" }
%"struct.std::_Vector_base.15" = type { %"struct.std::_Vector_base<std::shared_ptr<folly::ThreadPoolExecutor::Observer>, std::allocator<std::shared_ptr<folly::ThreadPoolExecutor::Observer>>>::_Vector_impl" }
%"struct.std::_Vector_base<std::shared_ptr<folly::ThreadPoolExecutor::Observer>, std::allocator<std::shared_ptr<folly::ThreadPoolExecutor::Observer>>>::_Vector_impl" = type { %"struct.std::_Vector_base<std::shared_ptr<folly::ThreadPoolExecutor::Observer>, std::allocator<std::shared_ptr<folly::ThreadPoolExecutor::Observer>>>::_Vector_impl_data" }
%"struct.std::_Vector_base<std::shared_ptr<folly::ThreadPoolExecutor::Observer>, std::allocator<std::shared_ptr<folly::ThreadPoolExecutor::Observer>>>::_Vector_impl_data" = type { ptr, ptr, ptr }
%"struct.std::atomic.19" = type { %"class.std::chrono::duration" }
%"struct.std::atomic.20" = type { %"struct.std::__atomic_base.21" }
%"struct.std::__atomic_base.21" = type { ptr }
%"class.folly::detail::ScopeGuardImpl.246" = type { %"class.folly::detail::ScopeGuardImplBase", %class.anon.247 }
%"class.folly::detail::ScopeGuardImplBase" = type { i8 }
%class.anon.247 = type { ptr, ptr }
%"class.folly::IOThreadPoolExecutor" = type { %"class.folly::IOThreadPoolExecutorBase.base", i8, %"struct.folly::relaxed_atomic", %"class.folly::ThreadLocal", ptr, %"class.std::unique_ptr", [8 x i8] }
%"class.folly::IOThreadPoolExecutorBase.base" = type { %"class.folly::ThreadPoolExecutor.base", %"class.folly::IOExecutor", %"class.folly::GetThreadIdCollector" }
%"class.folly::ThreadPoolExecutor.base" = type { %"class.folly::DefaultKeepAliveExecutor", %"class.std::shared_ptr.6", %"class.folly::ThreadPoolExecutor::ThreadList", %"class.folly::SharedMutexImpl", [36 x i8], %"class.folly::ThreadPoolExecutor::StoppedThreadQueue", %"struct.std::atomic.12", %"class.std::vector.14", [8 x i8], %"struct.std::atomic.10", %"struct.std::atomic.10", %"struct.std::atomic.10", %"struct.std::atomic.10", %"struct.std::atomic.19", i8, %"struct.std::atomic.20" }
%"class.folly::IOExecutor" = type { %"class.folly::Executor" }
%"class.folly::GetThreadIdCollector" = type { ptr }
%"struct.folly::relaxed_atomic" = type { %"struct.folly::detail::relaxed_atomic_integral_base" }
%"struct.folly::detail::relaxed_atomic_integral_base" = type { %"struct.folly::detail::relaxed_atomic_base" }
%"struct.folly::detail::relaxed_atomic_base" = type { %"struct.std::atomic.10" }
%"class.folly::ThreadLocal" = type { %"class.folly::ThreadLocalPtr", %"class.std::function" }
%"class.folly::ThreadLocalPtr" = type { %"class.folly::threadlocal_detail::StaticMetaBase::EntryID" }
%"class.folly::threadlocal_detail::StaticMetaBase::EntryID" = type { %"struct.std::atomic" }
%"class.std::function" = type { %"class.std::_Function_base", ptr }
%"class.std::_Function_base" = type { %"union.std::_Any_data", ptr }
%"union.std::_Any_data" = type { %"union.std::_Nocopy_types" }
%"union.std::_Nocopy_types" = type { { i64, i64 } }
%"class.std::unique_ptr" = type { %"struct.std::__uniq_ptr_data" }
%"struct.std::__uniq_ptr_data" = type { %"class.std::__uniq_ptr_impl" }
%"class.std::__uniq_ptr_impl" = type { %"class.std::tuple" }
%"class.std::tuple" = type { %"struct.std::_Tuple_impl" }
%"struct.std::_Tuple_impl" = type { %"struct.std::_Head_base.28" }
%"struct.std::_Head_base.28" = type { ptr }

; Function Attrs: mustprogress nounwind uwtable
define linkonce_odr noundef nonnull align 8 dereferenceable(8) ptr @_ZNSt10_Head_baseILm0EPN5folly22ThreadIdWorkerProviderELb0EE7_M_headERKS3_(ptr noundef nonnull align 8 dereferenceable(8) %0) #0 comdat align 2 {
  %2 = alloca ptr, align 8
  store ptr %0, ptr %2, align 8, !tbaa !237
  %3 = load ptr, ptr %2, align 8, !tbaa !237
  %4 = getelementptr inbounds nuw %"struct.std::_Head_base.28", ptr %3, i32 0, i32 0
  ret ptr %4
}

; Function Attrs: mustprogress nounwind uwtable
define linkonce_odr noundef nonnull align 8 dereferenceable(8) ptr @_ZNSt11_Tuple_implILm0EJPN5folly22ThreadIdWorkerProviderESt14default_deleteIS1_EEE7_M_headERKS5_(ptr noundef nonnull align 8 dereferenceable(8) %0) #0 comdat align 2 {
  %2 = alloca ptr, align 8
  store ptr %0, ptr %2, align 8, !tbaa !233
  %3 = load ptr, ptr %2, align 8, !tbaa !233
  %4 = call noundef nonnull align 8 dereferenceable(8) ptr @_ZNSt10_Head_baseILm0EPN5folly22ThreadIdWorkerProviderELb0EE7_M_headERKS3_(ptr noundef nonnull align 8 dereferenceable(8) %3) #25
  ret ptr %4
}

; Function Attrs: mustprogress nounwind uwtable
define linkonce_odr noundef nonnull align 8 dereferenceable(8) ptr @_ZSt12__get_helperILm0EPN5folly22ThreadIdWorkerProviderEJSt14default_deleteIS1_EEERKT0_RKSt11_Tuple_implIXT_EJS5_DpT1_EE(ptr noundef nonnull align 8 dereferenceable(8) %0) #0 comdat {
  %2 = alloca ptr, align 8
  store ptr %0, ptr %2, align 8, !tbaa !233
  %3 = load ptr, ptr %2, align 8, !tbaa !233
  %4 = call noundef nonnull align 8 dereferenceable(8) ptr @_ZNSt11_Tuple_implILm0EJPN5folly22ThreadIdWorkerProviderESt14default_deleteIS1_EEE7_M_headERKS5_(ptr noundef nonnull align 8 dereferenceable(8) %3) #25
  ret ptr %4
}

; Function Attrs: mustprogress nounwind uwtable
define linkonce_odr noundef nonnull align 8 dereferenceable(8) ptr @_ZSt3getILm0EJPN5folly22ThreadIdWorkerProviderESt14default_deleteIS1_EEERKNSt13tuple_elementIXT_ESt5tupleIJDpT0_EEE4typeERKS9_(ptr noundef nonnull align 8 dereferenceable(8) %0) #0 comdat {
  %2 = alloca ptr, align 8
  store ptr %0, ptr %2, align 8, !tbaa !231
  %3 = load ptr, ptr %2, align 8, !tbaa !231
  %4 = call noundef nonnull align 8 dereferenceable(8) ptr @_ZSt12__get_helperILm0EPN5folly22ThreadIdWorkerProviderEJSt14default_deleteIS1_EEERKT0_RKSt11_Tuple_implIXT_EJS5_DpT1_EE(ptr noundef nonnull align 8 dereferenceable(8) %3) #25
  ret ptr %4
}

; Function Attrs: mustprogress nounwind uwtable
define linkonce_odr noundef ptr @_ZNKSt15__uniq_ptr_implIN5folly22ThreadIdWorkerProviderESt14default_deleteIS1_EE6_M_ptrEv(ptr noundef nonnull align 8 dereferenceable(8) %0) #0 comdat align 2 {
  %2 = alloca ptr, align 8
  store ptr %0, ptr %2, align 8, !tbaa !229
  %3 = load ptr, ptr %2, align 8
  %4 = getelementptr inbounds nuw %"class.std::__uniq_ptr_impl", ptr %3, i32 0, i32 0
  %5 = call noundef nonnull align 8 dereferenceable(8) ptr @_ZSt3getILm0EJPN5folly22ThreadIdWorkerProviderESt14default_deleteIS1_EEERKNSt13tuple_elementIXT_ESt5tupleIJDpT0_EEE4typeERKS9_(ptr noundef nonnull align 8 dereferenceable(8) %4) #25
  %6 = load ptr, ptr %5, align 8, !tbaa !193
  ret ptr %6
}

; Function Attrs: mustprogress nounwind uwtable
define linkonce_odr noundef ptr @_ZNKSt10unique_ptrIN5folly22ThreadIdWorkerProviderESt14default_deleteIS1_EE3getEv(ptr noundef nonnull align 8 dereferenceable(8) %0) #0 comdat align 2 {
  %2 = alloca ptr, align 8
  store ptr %0, ptr %2, align 8, !tbaa !189
  %3 = load ptr, ptr %2, align 8
  %4 = getelementptr inbounds nuw %"class.std::unique_ptr", ptr %3, i32 0, i32 0
  %5 = call noundef ptr @_ZNKSt15__uniq_ptr_implIN5folly22ThreadIdWorkerProviderESt14default_deleteIS1_EE6_M_ptrEv(ptr noundef nonnull align 8 dereferenceable(8) %4) #25
  ret ptr %5
}

; Function Attrs: mustprogress nounwind uwtable
define linkonce_odr noundef ptr @_ZNKSt10unique_ptrIN5folly22ThreadIdWorkerProviderESt14default_deleteIS1_EEptEv(ptr noundef nonnull align 8 dereferenceable(8) %0) #0 comdat align 2 {
  %2 = alloca ptr, align 8
  store ptr %0, ptr %2, align 8, !tbaa !189
  %3 = load ptr, ptr %2, align 8
  %4 = call noundef ptr @_ZNKSt10unique_ptrIN5folly22ThreadIdWorkerProviderESt14default_deleteIS1_EE3getEv(ptr noundef nonnull align 8 dereferenceable(8) %3) #25
  ret ptr %4
}

; Function Attrs: mustprogress nounwind uwtable
define linkonce_odr noundef zeroext i1 @_ZNKSt10unique_ptrIN5folly22ThreadIdWorkerProviderESt14default_deleteIS1_EEcvbEv(ptr noundef nonnull align 8 dereferenceable(8) %0) #0 comdat align 2 {
  %2 = alloca ptr, align 8
  store ptr %0, ptr %2, align 8, !tbaa !189
  %3 = load ptr, ptr %2, align 8
  %4 = call noundef ptr @_ZNKSt10unique_ptrIN5folly22ThreadIdWorkerProviderESt14default_deleteIS1_EE3getEv(ptr noundef nonnull align 8 dereferenceable(8) %3) #25
  %5 = icmp eq ptr %4, null
  %6 = select i1 %5, i1 false, i1 true
  ret i1 %6
}

; Function Attrs: inlinehint mustprogress nounwind uwtable
define internal void @"_ZZN5folly20IOThreadPoolExecutor9threadRunESt10shared_ptrINS_18ThreadPoolExecutor6ThreadEEENK3$_1clEv"(ptr noundef nonnull align 8 dereferenceable(16) %0) #9 align 2 personality ptr @__gxx_personality_v0 {
  %2 = alloca ptr, align 8
  store ptr %0, ptr %2, align 8, !tbaa !159
  %3 = load ptr, ptr %2, align 8
  %4 = getelementptr inbounds nuw %class.anon.247, ptr %3, i32 0, i32 0
  %5 = load ptr, ptr %4, align 8, !tbaa !141
  %6 = getelementptr inbounds nuw %"class.folly::IOThreadPoolExecutor", ptr %5, i32 0, i32 5
  %7 = call noundef zeroext i1 @_ZNKSt10unique_ptrIN5folly22ThreadIdWorkerProviderESt14default_deleteIS1_EEcvbEv(ptr noundef nonnull align 8 dereferenceable(8) %6) #25
  br i1 %7, label %8, label %16

8:                                                ; preds = %1
  %9 = getelementptr inbounds nuw %"class.folly::IOThreadPoolExecutor", ptr %5, i32 0, i32 5
  %10 = call noundef ptr @_ZNKSt10unique_ptrIN5folly22ThreadIdWorkerProviderESt14default_deleteIS1_EEptEv(ptr noundef nonnull align 8 dereferenceable(8) %9) #25
  %11 = getelementptr inbounds nuw %class.anon.247, ptr %3, i32 0, i32 1
  %12 = load ptr, ptr %11, align 8, !tbaa !940
  %13 = load i64, ptr %12, align 8, !tbaa !16
  %14 = trunc i64 %13 to i32
  invoke void @_ZN5folly22ThreadIdWorkerProvider9removeTidEi(ptr noundef nonnull align 8 dereferenceable(76) %10, i32 noundef %14)
          to label %15 unwind label %17

15:                                               ; preds = %8
  br label %16

16:                                               ; preds = %15, %1
  ret void

17:                                               ; preds = %8
  %18 = landingpad { ptr, i32 }
          catch ptr null
  %19 = extractvalue { ptr, i32 } %18, 0
  call void @__clang_call_terminate(ptr %19) #34
  unreachable
}

; Function Attrs: alwaysinline mustprogress nounwind uwtable
define internal void @"_ZN5folly15catch_exceptionIRZNS_20IOThreadPoolExecutor9threadRunESt10shared_ptrINS_18ThreadPoolExecutor6ThreadEEE3$_1PDoFvvEJEvEET2_OT_OT0_DpOT1_"(ptr noundef nonnull align 8 dereferenceable(16) %0, ptr noundef nonnull align 8 dereferenceable(8) %1) #14 {
  %3 = alloca ptr, align 8
  %4 = alloca ptr, align 8
  store ptr %0, ptr %3, align 8, !tbaa !159
  store ptr %1, ptr %4, align 8, !tbaa !159
  %5 = load ptr, ptr %3, align 8, !tbaa !159
  call void @"_ZZN5folly20IOThreadPoolExecutor9threadRunESt10shared_ptrINS_18ThreadPoolExecutor6ThreadEEENK3$_1clEv"(ptr noundef nonnull align 8 dereferenceable(16) %5) #25
  ret void
}

; Function Attrs: mustprogress nounwind uwtable
define internal void @"_ZN5folly6detail14ScopeGuardImplIZNS_20IOThreadPoolExecutor9threadRunESt10shared_ptrINS_18ThreadPoolExecutor6ThreadEEE3$_1Lb1EE7executeEv"(ptr noundef nonnull align 8 dereferenceable(24) %0) #0 align 2 {
  %2 = alloca ptr, align 8
  %3 = alloca ptr, align 8
  store ptr %0, ptr %2, align 8, !tbaa !868
  %4 = load ptr, ptr %2, align 8
  %5 = getelementptr inbounds nuw %"class.folly::detail::ScopeGuardImpl.246", ptr %4, i32 0, i32 1
  call void @llvm.lifetime.start.p0(i64 8, ptr %3) #25
  store ptr @_ZN5folly6detail18ScopeGuardImplBase9terminateEv, ptr %3, align 8, !tbaa !159
  call void @"_ZN5folly15catch_exceptionIRZNS_20IOThreadPoolExecutor9threadRunESt10shared_ptrINS_18ThreadPoolExecutor6ThreadEEE3$_1PDoFvvEJEvEET2_OT_OT0_DpOT1_"(ptr noundef nonnull align 8 dereferenceable(16) %5, ptr noundef nonnull align 8 dereferenceable(8) %3) #25
  call void @llvm.lifetime.end.p0(i64 8, ptr %3) #25
  ret void
}

; Function Attrs: mustprogress nounwind uwtable
define internal void @"_ZN5folly6detail14ScopeGuardImplIZNS_20IOThreadPoolExecutor9threadRunESt10shared_ptrINS_18ThreadPoolExecutor6ThreadEEE3$_1Lb1EED2Ev"(ptr noundef nonnull align 8 dereferenceable(24) %0) unnamed_addr #0 align 2 {
  %2 = alloca ptr, align 8
  store ptr %0, ptr %2, align 8, !tbaa !868
  %3 = load ptr, ptr %2, align 8
  %4 = getelementptr inbounds nuw %"class.folly::detail::ScopeGuardImplBase", ptr %3, i32 0, i32 0
  %5 = load i8, ptr %4, align 8, !tbaa !711, !range !148, !noundef !149
  %6 = trunc i8 %5 to i1
  br i1 %6, label %8, label %7

7:                                                ; preds = %1
  call void @"_ZN5folly6detail14ScopeGuardImplIZNS_20IOThreadPoolExecutor9threadRunESt10shared_ptrINS_18ThreadPoolExecutor6ThreadEEE3$_1Lb1EE7executeEv"(ptr noundef nonnull align 8 dereferenceable(24) %3) #25
  br label %8

8:                                                ; preds = %7, %1
  ret void
}