; Function Attrs: mustprogress nounwind uwtable
define internal fastcc void @"_ZN5folly6detail14ScopeGuardImplIZNS_20IOThreadPoolExecutor9threadRunESt10shared_ptrINS_18ThreadPoolExecutor6ThreadEEE3$_1Lb1EED2Ev"(ptr noundef nonnull readonly align 8 captures(none) dereferenceable(24) %0) unnamed_addr #0 align 2 personality ptr @__gxx_personality_v0 {
  %2 = load i8, ptr %0, align 8, !tbaa !168, !range !211, !noundef !212
  %3 = trunc nuw i8 %2 to i1
  br i1 %3, label %"_ZN5folly6detail14ScopeGuardImplIZNS_20IOThreadPoolExecutor9threadRunESt10shared_ptrINS_18ThreadPoolExecutor6ThreadEEE3$_1Lb1EE7executeEv.exit", label %4

4:                                                ; preds = %1
  %5 = getelementptr inbounds nuw i8, ptr %0, i64 8
  %.val = load ptr, ptr %5, align 8, !tbaa !213
  %6 = getelementptr i8, ptr %.val, i64 560
  %.val.val = load ptr, ptr %6, align 8, !tbaa !167
  %.not.i.i = icmp eq ptr %.val.val, null
  br i1 %.not.i.i, label %"_ZN5folly6detail14ScopeGuardImplIZNS_20IOThreadPoolExecutor9threadRunESt10shared_ptrINS_18ThreadPoolExecutor6ThreadEEE3$_1Lb1EE7executeEv.exit", label %7

7:                                                ; preds = %4
  %8 = getelementptr inbounds nuw i8, ptr %0, i64 16
  %.val1 = load ptr, ptr %8, align 8
  %9 = load i64, ptr %.val1, align 8, !tbaa !83
  %10 = trunc i64 %9 to i32
  invoke void @_ZN5folly22ThreadIdWorkerProvider9removeTidEi(ptr noundef nonnull align 8 dereferenceable(76) %.val.val, i32 noundef %10)
          to label %"_ZN5folly6detail14ScopeGuardImplIZNS_20IOThreadPoolExecutor9threadRunESt10shared_ptrINS_18ThreadPoolExecutor6ThreadEEE3$_1Lb1EE7executeEv.exit" unwind label %11

11:                                               ; preds = %7
  %12 = landingpad { ptr, i32 }
          catch ptr null
  %13 = extractvalue { ptr, i32 } %12, 0
  tail call void @__clang_call_terminate(ptr %13) #36
  unreachable

"_ZN5folly6detail14ScopeGuardImplIZNS_20IOThreadPoolExecutor9threadRunESt10shared_ptrINS_18ThreadPoolExecutor6ThreadEEE3$_1Lb1EE7executeEv.exit": ; preds = %7, %4, %1
  ret void
}